target datalayout = "e-m:e-p270:32:32-p271:32:32-p272:64:64-i64:64-i128:128-f80:128-n8:16:32:64-S128"
target triple = "x86_64-pc-linux-gnu"

%struct._object = type { %union.anon, ptr }
%union.anon = type { i64 }
%struct.RFILE = type { ptr, i32, ptr, ptr, ptr, ptr, i64, ptr, i32 }
%struct.stat = type { i64, i64, i64, i32, i32, i32, i32, i64, i64, i64, i64, %struct.timespec, %struct.timespec, %struct.timespec, [3 x i64] }
%struct.timespec = type { i64, i64 }
%struct.anon = type { i32, i32 }

; Function Attrs: alwaysinline nounwind uwtable
define internal i32 @_Py_IsImmortal(ptr noundef %0) #4 {
  %2 = alloca ptr, align 8
  store ptr %0, ptr %2, align 8, !tbaa !25
  %3 = load ptr, ptr %2, align 8, !tbaa !25
  %4 = getelementptr inbounds nuw %struct._object, ptr %3, i32 0, i32 0
  %5 = getelementptr inbounds nuw %struct.anon, ptr %4, i32 0, i32 0
  %6 = load i32, ptr %5, align 8, !tbaa !24
  %7 = icmp slt i32 %6, 0
  %8 = zext i1 %7 to i32
  ret i32 %8
}

; Function Attrs: alwaysinline nounwind uwtable
define internal void @Py_DECREF(ptr noundef %0) #4 {
  %2 = alloca ptr, align 8
  store ptr %0, ptr %2, align 8, !tbaa !25
  %3 = load ptr, ptr %2, align 8, !tbaa !25
  %4 = call i32 @_Py_IsImmortal(ptr noundef %3)
  %5 = icmp ne i32 %4, 0
  br i1 %5, label %6, label %7

6:                                                ; preds = %1
  br label %16

7:                                                ; preds = %1
  %8 = load ptr, ptr %2, align 8, !tbaa !25
  %9 = getelementptr inbounds nuw %struct._object, ptr %8, i32 0, i32 0
  %10 = getelementptr inbounds nuw %struct.anon, ptr %9, i32 0, i32 0
  %11 = load i32, ptr %10, align 8, !tbaa !24
  %12 = add i32 %11, -1
  store i32 %12, ptr %10, align 8, !tbaa !24
  %13 = icmp eq i32 %12, 0
  br i1 %13, label %14, label %16

14:                                               ; preds = %7
  %15 = load ptr, ptr %2, align 8, !tbaa !25
  call void @_Py_Dealloc(ptr noundef %15)
  br label %16

16:                                               ; preds = %6, %14, %7
  ret void
}

; Function Attrs: nounwind uwtable
define dso_local ptr @PyMarshal_ReadObjectFromFile(ptr noundef %0) #0 {
  %2 = alloca ptr, align 8
  %3 = alloca ptr, align 8
  %4 = alloca %struct.RFILE, align 8
  %5 = alloca ptr, align 8
  %6 = alloca i32, align 4
  store ptr %0, ptr %3, align 8, !tbaa !8
  call void @llvm.lifetime.start.p0(i64 72, ptr %4) #11
  call void @llvm.lifetime.start.p0(i64 8, ptr %5) #11
  %7 = getelementptr inbounds nuw %struct.RFILE, ptr %4, i32 0, i32 8
  store i32 1, ptr %7, align 8, !tbaa !41
  %8 = load ptr, ptr %3, align 8, !tbaa !8
  %9 = getelementptr inbounds nuw %struct.RFILE, ptr %4, i32 0, i32 0
  store ptr %8, ptr %9, align 8, !tbaa !31
  %10 = getelementptr inbounds nuw %struct.RFILE, ptr %4, i32 0, i32 2
  store ptr null, ptr %10, align 8, !tbaa !29
  %11 = getelementptr inbounds nuw %struct.RFILE, ptr %4, i32 0, i32 1
  store i32 0, ptr %11, align 8, !tbaa !42
  %12 = getelementptr inbounds nuw %struct.RFILE, ptr %4, i32 0, i32 4
  store ptr null, ptr %12, align 8, !tbaa !33
  %13 = getelementptr inbounds nuw %struct.RFILE, ptr %4, i32 0, i32 3
  store ptr null, ptr %13, align 8, !tbaa !32
  %14 = getelementptr inbounds nuw %struct.RFILE, ptr %4, i32 0, i32 5
  store ptr null, ptr %14, align 8, !tbaa !34
  %15 = call ptr @PyList_New(i64 noundef 0)
  %16 = getelementptr inbounds nuw %struct.RFILE, ptr %4, i32 0, i32 7
  store ptr %15, ptr %16, align 8, !tbaa !43
  %17 = getelementptr inbounds nuw %struct.RFILE, ptr %4, i32 0, i32 7
  %18 = load ptr, ptr %17, align 8, !tbaa !43
  %19 = icmp eq ptr %18, null
  br i1 %19, label %20, label %21

20:                                               ; preds = %1
  store ptr null, ptr %2, align 8
  store i32 1, ptr %6, align 4
  br label %33

21:                                               ; preds = %1
  %22 = call ptr @read_object(ptr noundef %4)
  store ptr %22, ptr %5, align 8, !tbaa !25
  %23 = getelementptr inbounds nuw %struct.RFILE, ptr %4, i32 0, i32 7
  %24 = load ptr, ptr %23, align 8, !tbaa !43
  call void @Py_DECREF(ptr noundef %24)
  %25 = getelementptr inbounds nuw %struct.RFILE, ptr %4, i32 0, i32 5
  %26 = load ptr, ptr %25, align 8, !tbaa !34
  %27 = icmp ne ptr %26, null
  br i1 %27, label %28, label %31

28:                                               ; preds = %21
  %29 = getelementptr inbounds nuw %struct.RFILE, ptr %4, i32 0, i32 5
  %30 = load ptr, ptr %29, align 8, !tbaa !34
  call void @PyMem_Free(ptr noundef %30)
  br label %31

31:                                               ; preds = %28, %21
  %32 = load ptr, ptr %5, align 8, !tbaa !25
  store ptr %32, ptr %2, align 8
  store i32 1, ptr %6, align 4
  br label %33

33:                                               ; preds = %31, %20
  call void @llvm.lifetime.end.p0(i64 8, ptr %5) #11
  call void @llvm.lifetime.end.p0(i64 72, ptr %4) #11
  %34 = load ptr, ptr %2, align 8
  ret ptr %34
}

; Function Attrs: nounwind uwtable
define dso_local ptr @PyMarshal_ReadObjectFromString(ptr noundef %0, i64 noundef %1) #0 {
  %3 = alloca ptr, align 8
  %4 = alloca ptr, align 8
  %5 = alloca i64, align 8
  %6 = alloca %struct.RFILE, align 8
  %7 = alloca ptr, align 8
  %8 = alloca i32, align 4
  store ptr %0, ptr %4, align 8, !tbaa !37
  store i64 %1, ptr %5, align 8, !tbaa !4
  call void @llvm.lifetime.start.p0(i64 72, ptr %6) #11
  call void @llvm.lifetime.start.p0(i64 8, ptr %7) #11
  %9 = getelementptr inbounds nuw %struct.RFILE, ptr %6, i32 0, i32 8
  store i32 1, ptr %9, align 8, !tbaa !41
  %10 = getelementptr inbounds nuw %struct.RFILE, ptr %6, i32 0, i32 0
  store ptr null, ptr %10, align 8, !tbaa !31
  %11 = getelementptr inbounds nuw %struct.RFILE, ptr %6, i32 0, i32 2
  store ptr null, ptr %11, align 8, !tbaa !29
  %12 = load ptr, ptr %4, align 8, !tbaa !37
  %13 = getelementptr inbounds nuw %struct.RFILE, ptr %6, i32 0, i32 3
  store ptr %12, ptr %13, align 8, !tbaa !32
  %14 = load ptr, ptr %4, align 8, !tbaa !37
  %15 = load i64, ptr %5, align 8, !tbaa !4
  %16 = getelementptr i8, ptr %14, i64 %15
  %17 = getelementptr inbounds nuw %struct.RFILE, ptr %6, i32 0, i32 4
  store ptr %16, ptr %17, align 8, !tbaa !33
  %18 = getelementptr inbounds nuw %struct.RFILE, ptr %6, i32 0, i32 5
  store ptr null, ptr %18, align 8, !tbaa !34
  %19 = getelementptr inbounds nuw %struct.RFILE, ptr %6, i32 0, i32 1
  store i32 0, ptr %19, align 8, !tbaa !42
  %20 = call ptr @PyList_New(i64 noundef 0)
  %21 = getelementptr inbounds nuw %struct.RFILE, ptr %6, i32 0, i32 7
  store ptr %20, ptr %21, align 8, !tbaa !43
  %22 = getelementptr inbounds nuw %struct.RFILE, ptr %6, i32 0, i32 7
  %23 = load ptr, ptr %22, align 8, !tbaa !43
  %24 = icmp eq ptr %23, null
  br i1 %24, label %25, label %26

25:                                               ; preds = %2
  store ptr null, ptr %3, align 8
  store i32 1, ptr %8, align 4
  br label %38

26:                                               ; preds = %2
  %27 = call ptr @read_object(ptr noundef %6)
  store ptr %27, ptr %7, align 8, !tbaa !25
  %28 = getelementptr inbounds nuw %struct.RFILE, ptr %6, i32 0, i32 7
  %29 = load ptr, ptr %28, align 8, !tbaa !43
  call void @Py_DECREF(ptr noundef %29)
  %30 = getelementptr inbounds nuw %struct.RFILE, ptr %6, i32 0, i32 5
  %31 = load ptr, ptr %30, align 8, !tbaa !34
  %32 = icmp ne ptr %31, null
  br i1 %32, label %33, label %36

33:                                               ; preds = %26
  %34 = getelementptr inbounds nuw %struct.RFILE, ptr %6, i32 0, i32 5
  %35 = load ptr, ptr %34, align 8, !tbaa !34
  call void @PyMem_Free(ptr noundef %35)
  br label %36

36:                                               ; preds = %33, %26
  %37 = load ptr, ptr %7, align 8, !tbaa !25
  store ptr %37, ptr %3, align 8
  store i32 1, ptr %8, align 4
  br label %38

38:                                               ; preds = %36, %25
  call void @llvm.lifetime.end.p0(i64 8, ptr %7) #11
  call void @llvm.lifetime.end.p0(i64 72, ptr %6) #11
  %39 = load ptr, ptr %3, align 8
  ret ptr %39
}

; Function Attrs: nounwind uwtable
define internal i64 @getfilesize(ptr noundef %0) #0 {
  %2 = alloca i64, align 8
  %3 = alloca ptr, align 8
  %4 = alloca %struct.stat, align 8
  %5 = alloca i32, align 4
  store ptr %0, ptr %3, align 8, !tbaa !8
  call void @llvm.lifetime.start.p0(i64 144, ptr %4) #11
  %6 = load ptr, ptr %3, align 8, !tbaa !8
  %7 = call i32 @fileno(ptr noundef %6) #11
  %8 = call i32 @_Py_fstat_noraise(i32 noundef %7, ptr noundef %4)
  %9 = icmp ne i32 %8, 0
  br i1 %9, label %10, label %11

10:                                               ; preds = %1
  store i64 -1, ptr %2, align 8
  store i32 1, ptr %5, align 4
  br label %14

11:                                               ; preds = %1
  %12 = getelementptr inbounds nuw %struct.stat, ptr %4, i32 0, i32 8
  %13 = load i64, ptr %12, align 8, !tbaa !38
  store i64 %13, ptr %2, align 8
  store i32 1, ptr %5, align 4
  br label %14

14:                                               ; preds = %11, %10
  call void @llvm.lifetime.end.p0(i64 144, ptr %4) #11
  %15 = load i64, ptr %2, align 8
  ret i64 %15
}

; Function Attrs: nounwind uwtable
define dso_local ptr @PyMarshal_ReadLastObjectFromFile(ptr noundef %0) #0 {
  %2 = alloca ptr, align 8
  %3 = alloca ptr, align 8
  %4 = alloca i64, align 8
  %5 = alloca ptr, align 8
  %6 = alloca i64, align 8
  %7 = alloca ptr, align 8
  %8 = alloca i32, align 4
  store ptr %0, ptr %3, align 8, !tbaa !8
  call void @llvm.lifetime.start.p0(i64 8, ptr %4) #11
  %9 = load ptr, ptr %3, align 8, !tbaa !8
  %10 = call i64 @getfilesize(ptr noundef %9)
  store i64 %10, ptr %4, align 8, !tbaa !4
  %11 = load i64, ptr %4, align 8, !tbaa !4
  %12 = icmp sgt i64 %11, 0
  br i1 %12, label %13, label %35

13:                                               ; preds = %1
  %14 = load i64, ptr %4, align 8, !tbaa !4
  %15 = icmp sle i64 %14, 262144
  br i1 %15, label %16, label %35

16:                                               ; preds = %13
  call void @llvm.lifetime.start.p0(i64 8, ptr %5) #11
  %17 = load i64, ptr %4, align 8, !tbaa !4
  %18 = call ptr @PyMem_Malloc(i64 noundef %17)
  store ptr %18, ptr %5, align 8, !tbaa !37
  %19 = load ptr, ptr %5, align 8, !tbaa !37
  %20 = icmp ne ptr %19, null
  br i1 %20, label %21, label %31

21:                                               ; preds = %16
  call void @llvm.lifetime.start.p0(i64 8, ptr %6) #11
  %22 = load ptr, ptr %5, align 8, !tbaa !37
  %23 = load i64, ptr %4, align 8, !tbaa !4
  %24 = load ptr, ptr %3, align 8, !tbaa !8
  %25 = call i64 @fread(ptr noundef %22, i64 noundef 1, i64 noundef %23, ptr noundef %24)
  store i64 %25, ptr %6, align 8, !tbaa !4
  call void @llvm.lifetime.start.p0(i64 8, ptr %7) #11
  %26 = load ptr, ptr %5, align 8, !tbaa !37
  %27 = load i64, ptr %6, align 8, !tbaa !4
  %28 = call ptr @PyMarshal_ReadObjectFromString(ptr noundef %26, i64 noundef %27)
  store ptr %28, ptr %7, align 8, !tbaa !25
  %29 = load ptr, ptr %5, align 8, !tbaa !37
  call void @PyMem_Free(ptr noundef %29)
  %30 = load ptr, ptr %7, align 8, !tbaa !25
  store ptr %30, ptr %2, align 8
  store i32 1, ptr %8, align 4
  call void @llvm.lifetime.end.p0(i64 8, ptr %7) #11
  call void @llvm.lifetime.end.p0(i64 8, ptr %6) #11
  br label %32

31:                                               ; preds = %16
  store i32 0, ptr %8, align 4
  br label %32

32:                                               ; preds = %31, %21
  call void @llvm.lifetime.end.p0(i64 8, ptr %5) #11
  %33 = load i32, ptr %8, align 4
  switch i32 %33, label %38 [
    i32 0, label %34
  ]

34:                                               ; preds = %32
  br label %35

35:                                               ; preds = %34, %13, %1
  %36 = load ptr, ptr %3, align 8, !tbaa !8
  %37 = call ptr @PyMarshal_ReadObjectFromFile(ptr noundef %36)
  store ptr %37, ptr %2, align 8
  store i32 1, ptr %8, align 4
  br label %38

38:                                               ; preds = %35, %32
  call void @llvm.lifetime.end.p0(i64 8, ptr %4) #11
  %39 = load ptr, ptr %2, align 8
  ret ptr %39
}