; Function Attrs: nounwind uwtable
define dso_local ptr @PyMarshal_ReadLastObjectFromFile(ptr noundef %0) local_unnamed_addr #0 {
  %2 = alloca %struct.RFILE, align 8
  %3 = alloca %struct.RFILE, align 8
  %4 = alloca %struct.stat, align 8
  call void @llvm.lifetime.start.p0(i64 144, ptr nonnull %4) #11
  %5 = tail call i32 @fileno(ptr noundef %0) #11
  %6 = call i32 @_Py_fstat_noraise(i32 noundef %5, ptr noundef nonnull %4) #11
  %.not.i = icmp eq i32 %6, 0
  %7 = getelementptr inbounds nuw i8, ptr %4, i64 48
  %8 = load i64, ptr %7, align 8
  %.0.i = select i1 %.not.i, i64 %8, i64 -1
  call void @llvm.lifetime.end.p0(i64 144, ptr nonnull %4) #11
  %9 = add i64 %.0.i, -1
  %or.cond = icmp ult i64 %9, 262144
  br i1 %or.cond, label %10, label %.thread

10:                                               ; preds = %1
  %11 = call ptr @PyMem_Malloc(i64 noundef %.0.i) #11
  %.not = icmp eq ptr %11, null
  br i1 %.not, label %.thread, label %12

12:                                               ; preds = %10
  %13 = call i64 @fread(ptr noundef nonnull %11, i64 noundef 1, i64 noundef %.0.i, ptr noundef %0)
  call void @llvm.lifetime.start.p0(i64 72, ptr nonnull %3) #11
  %14 = getelementptr inbounds nuw i8, ptr %3, i64 64
  store i32 1, ptr %14, align 8, !tbaa !47
  store ptr null, ptr %3, align 8, !tbaa !45
  %15 = getelementptr inbounds nuw i8, ptr %3, i64 16
  store ptr null, ptr %15, align 8, !tbaa !43
  %16 = getelementptr inbounds nuw i8, ptr %3, i64 24
  store ptr %11, ptr %16, align 8, !tbaa !48
  %17 = getelementptr i8, ptr %11, i64 %13
  %18 = getelementptr inbounds nuw i8, ptr %3, i64 32
  store ptr %17, ptr %18, align 8, !tbaa !49
  %19 = getelementptr inbounds nuw i8, ptr %3, i64 40
  store ptr null, ptr %19, align 8, !tbaa !46
  %20 = getelementptr inbounds nuw i8, ptr %3, i64 8
  store i32 0, ptr %20, align 8, !tbaa !50
  %21 = call ptr @PyList_New(i64 noundef 0) #11
  %22 = getelementptr inbounds nuw i8, ptr %3, i64 56
  store ptr %21, ptr %22, align 8, !tbaa !51
  %23 = icmp eq ptr %21, null
  br i1 %23, label %34, label %24

24:                                               ; preds = %12
  %25 = call fastcc ptr @read_object(ptr noundef %3)
  %26 = load ptr, ptr %22, align 8, !tbaa !51
  %27 = load i32, ptr %26, align 8, !tbaa !25
  %.not.i.i = icmp sgt i32 %27, -1
  br i1 %.not.i.i, label %28, label %Py_DECREF.exit.i

28:                                               ; preds = %24
  %29 = add nsw i32 %27, -1
  store i32 %29, ptr %26, align 8, !tbaa !25
  %30 = icmp eq i32 %29, 0
  br i1 %30, label %31, label %Py_DECREF.exit.i

31:                                               ; preds = %28
  call void @_Py_Dealloc(ptr noundef nonnull %26) #11
  br label %Py_DECREF.exit.i

Py_DECREF.exit.i:                                 ; preds = %31, %28, %24
  %32 = load ptr, ptr %19, align 8, !tbaa !46
  %.not.i18 = icmp eq ptr %32, null
  br i1 %.not.i18, label %34, label %33

33:                                               ; preds = %Py_DECREF.exit.i
  call void @PyMem_Free(ptr noundef nonnull %32) #11
  br label %34

34:                                               ; preds = %33, %Py_DECREF.exit.i, %12
  %.0.i19 = phi ptr [ null, %12 ], [ %25, %33 ], [ %25, %Py_DECREF.exit.i ]
  call void @llvm.lifetime.end.p0(i64 72, ptr nonnull %3) #11
  call void @PyMem_Free(ptr noundef nonnull %11) #11
  br label %52

.thread:                                          ; preds = %10, %1
  call void @llvm.lifetime.start.p0(i64 72, ptr nonnull %2) #11
  %35 = getelementptr inbounds nuw i8, ptr %2, i64 64
  store i32 1, ptr %35, align 8, !tbaa !47
  store ptr %0, ptr %2, align 8, !tbaa !45
  %36 = getelementptr inbounds nuw i8, ptr %2, i64 16
  %37 = getelementptr inbounds nuw i8, ptr %2, i64 8
  store i32 0, ptr %37, align 8, !tbaa !50
  %38 = getelementptr inbounds nuw i8, ptr %2, i64 40
  call void @llvm.memset.p0.i64(ptr noundef nonnull align 8 dereferenceable(32) %36, i8 0, i64 32, i1 false)
  %39 = call ptr @PyList_New(i64 noundef 0) #11
  %40 = getelementptr inbounds nuw i8, ptr %2, i64 56
  store ptr %39, ptr %40, align 8, !tbaa !51
  %41 = icmp eq ptr %39, null
  br i1 %41, label %PyMarshal_ReadObjectFromFile.exit, label %42

42:                                               ; preds = %.thread
  %43 = call fastcc ptr @read_object(ptr noundef %2)
  %44 = load ptr, ptr %40, align 8, !tbaa !51
  %45 = load i32, ptr %44, align 8, !tbaa !25
  %.not.i.i20 = icmp sgt i32 %45, -1
  br i1 %.not.i.i20, label %46, label %Py_DECREF.exit.i21

46:                                               ; preds = %42
  %47 = add nsw i32 %45, -1
  store i32 %47, ptr %44, align 8, !tbaa !25
  %48 = icmp eq i32 %47, 0
  br i1 %48, label %49, label %Py_DECREF.exit.i21

49:                                               ; preds = %46
  call void @_Py_Dealloc(ptr noundef nonnull %44) #11
  br label %Py_DECREF.exit.i21

Py_DECREF.exit.i21:                               ; preds = %49, %46, %42
  %50 = load ptr, ptr %38, align 8, !tbaa !46
  %.not.i22 = icmp eq ptr %50, null
  br i1 %.not.i22, label %PyMarshal_ReadObjectFromFile.exit, label %51

51:                                               ; preds = %Py_DECREF.exit.i21
  call void @PyMem_Free(ptr noundef nonnull %50) #11
  br label %PyMarshal_ReadObjectFromFile.exit

PyMarshal_ReadObjectFromFile.exit:                ; preds = %.thread, %Py_DECREF.exit.i21, %51
  %.0.i23 = phi ptr [ null, %.thread ], [ %43, %51 ], [ %43, %Py_DECREF.exit.i21 ]
  call void @llvm.lifetime.end.p0(i64 72, ptr nonnull %2) #11
  br label %52

52:                                               ; preds = %34, %PyMarshal_ReadObjectFromFile.exit
  %.1 = phi ptr [ %.0.i23, %PyMarshal_ReadObjectFromFile.exit ], [ %.0.i19, %34 ]
  ret ptr %.1
}